
./hex/lbu.elf:     file format elf32-littleriscv


Disassembly of section .text:

00000000 <_start>:
   0:	00200e13          	li	t3,2
   4:	0ff00793          	li	a5,255
   8:	23800113          	li	sp,568
   c:	00014703          	lbu	a4,0(sp)
  10:	0ff00393          	li	t2,255
  14:	20771863          	bne	a4,t2,224 <fail>

00000018 <test_3>:
  18:	00300e13          	li	t3,3
  1c:	00000793          	li	a5,0
  20:	23800113          	li	sp,568
  24:	00114703          	lbu	a4,1(sp)
  28:	00000393          	li	t2,0
  2c:	1e771c63          	bne	a4,t2,224 <fail>

00000030 <test_4>:
  30:	00400e13          	li	t3,4
  34:	0f000793          	li	a5,240
  38:	23800113          	li	sp,568
  3c:	00214703          	lbu	a4,2(sp)
  40:	0f000393          	li	t2,240
  44:	1e771063          	bne	a4,t2,224 <fail>

00000048 <test_5>:
  48:	00500e13          	li	t3,5
  4c:	00f00793          	li	a5,15
  50:	23800113          	li	sp,568
  54:	00314703          	lbu	a4,3(sp)
  58:	00f00393          	li	t2,15
  5c:	1c771463          	bne	a4,t2,224 <fail>

00000060 <test_6>:
  60:	00600e13          	li	t3,6
  64:	0ff00793          	li	a5,255
  68:	23b00113          	li	sp,571
  6c:	ffd14703          	lbu	a4,-3(sp)
  70:	0ff00393          	li	t2,255
  74:	1a771863          	bne	a4,t2,224 <fail>

00000078 <test_7>:
  78:	00700e13          	li	t3,7
  7c:	00000793          	li	a5,0
  80:	23b00113          	li	sp,571
  84:	ffe14703          	lbu	a4,-2(sp)
  88:	00000393          	li	t2,0
  8c:	18771c63          	bne	a4,t2,224 <fail>

00000090 <test_8>:
  90:	00800e13          	li	t3,8
  94:	0f000793          	li	a5,240
  98:	23b00113          	li	sp,571
  9c:	fff14703          	lbu	a4,-1(sp)
  a0:	0f000393          	li	t2,240
  a4:	18771063          	bne	a4,t2,224 <fail>

000000a8 <test_9>:
  a8:	00900e13          	li	t3,9
  ac:	00f00793          	li	a5,15
  b0:	23b00113          	li	sp,571
  b4:	00014703          	lbu	a4,0(sp)
  b8:	00f00393          	li	t2,15
  bc:	16771463          	bne	a4,t2,224 <fail>

000000c0 <test_10>:
  c0:	00a00e13          	li	t3,10
  c4:	23800093          	li	ra,568
  c8:	fe008093          	addi	ra,ra,-32
  cc:	0200c283          	lbu	t0,32(ra)
  d0:	0ff00393          	li	t2,255
  d4:	14729863          	bne	t0,t2,224 <fail>

000000d8 <test_11>:
  d8:	00b00e13          	li	t3,11
  dc:	23800093          	li	ra,568
  e0:	ffa08093          	addi	ra,ra,-6
  e4:	0070c283          	lbu	t0,7(ra)
  e8:	00000393          	li	t2,0
  ec:	12729c63          	bne	t0,t2,224 <fail>

000000f0 <test_12>:
  f0:	00c00e13          	li	t3,12
  f4:	00000213          	li	tp,0
  f8:	23900693          	li	a3,569
  fc:	0016c703          	lbu	a4,1(a3)
 100:	00070313          	mv	t1,a4
 104:	0f000393          	li	t2,240
 108:	10731e63          	bne	t1,t2,224 <fail>
 10c:	00120213          	addi	tp,tp,1 # 1 <_start+0x1>
 110:	00200293          	li	t0,2
 114:	fe5212e3          	bne	tp,t0,f8 <test_12+0x8>

00000118 <test_13>:
 118:	00d00e13          	li	t3,13
 11c:	00000213          	li	tp,0
 120:	23a00693          	li	a3,570
 124:	0016c703          	lbu	a4,1(a3)
 128:	00000013          	nop
 12c:	00070313          	mv	t1,a4
 130:	00f00393          	li	t2,15
 134:	0e731863          	bne	t1,t2,224 <fail>
 138:	00120213          	addi	tp,tp,1 # 1 <_start+0x1>
 13c:	00200293          	li	t0,2
 140:	fe5210e3          	bne	tp,t0,120 <test_13+0x8>

00000144 <test_14>:
 144:	00e00e13          	li	t3,14
 148:	00000213          	li	tp,0
 14c:	23800693          	li	a3,568
 150:	0016c703          	lbu	a4,1(a3)
 154:	00000013          	nop
 158:	00000013          	nop
 15c:	00070313          	mv	t1,a4
 160:	00000393          	li	t2,0
 164:	0c731063          	bne	t1,t2,224 <fail>
 168:	00120213          	addi	tp,tp,1 # 1 <_start+0x1>
 16c:	00200293          	li	t0,2
 170:	fc521ee3          	bne	tp,t0,14c <test_14+0x8>

00000174 <test_15>:
 174:	00f00e13          	li	t3,15
 178:	00000213          	li	tp,0
 17c:	23900693          	li	a3,569
 180:	0016c703          	lbu	a4,1(a3)
 184:	0f000393          	li	t2,240
 188:	08771e63          	bne	a4,t2,224 <fail>
 18c:	00120213          	addi	tp,tp,1 # 1 <_start+0x1>
 190:	00200293          	li	t0,2
 194:	fe5214e3          	bne	tp,t0,17c <test_15+0x8>

00000198 <test_16>:
 198:	01000e13          	li	t3,16
 19c:	00000213          	li	tp,0
 1a0:	23a00693          	li	a3,570
 1a4:	00000013          	nop
 1a8:	0016c703          	lbu	a4,1(a3)
 1ac:	00f00393          	li	t2,15
 1b0:	06771a63          	bne	a4,t2,224 <fail>
 1b4:	00120213          	addi	tp,tp,1 # 1 <_start+0x1>
 1b8:	00200293          	li	t0,2
 1bc:	fe5212e3          	bne	tp,t0,1a0 <test_16+0x8>

000001c0 <test_17>:
 1c0:	01100e13          	li	t3,17
 1c4:	00000213          	li	tp,0
 1c8:	23800693          	li	a3,568
 1cc:	00000013          	nop
 1d0:	00000013          	nop
 1d4:	0016c703          	lbu	a4,1(a3)
 1d8:	00000393          	li	t2,0
 1dc:	04771463          	bne	a4,t2,224 <fail>
 1e0:	00120213          	addi	tp,tp,1 # 1 <_start+0x1>
 1e4:	00200293          	li	t0,2
 1e8:	fe5210e3          	bne	tp,t0,1c8 <test_17+0x8>

000001ec <test_18>:
 1ec:	01200e13          	li	t3,18
 1f0:	23800293          	li	t0,568
 1f4:	0002c103          	lbu	sp,0(t0)
 1f8:	00200113          	li	sp,2
 1fc:	00200393          	li	t2,2
 200:	02711263          	bne	sp,t2,224 <fail>

00000204 <test_19>:
 204:	01300e13          	li	t3,19
 208:	23800293          	li	t0,568
 20c:	0002c103          	lbu	sp,0(t0)
 210:	00000013          	nop
 214:	00200113          	li	sp,2
 218:	00200393          	li	t2,2
 21c:	00711463          	bne	sp,t2,224 <fail>
 220:	01c01663          	bne	zero,t3,22c <pass>

00000224 <fail>:
 224:	0ff0000f          	fence
 228:	00100073          	.word	0x00100073

0000022c <pass>:
 22c:	0ff0000f          	fence
 230:	00100e13          	li	t3,1
 234:	00100073          	.word	0x00100073
