
./hex/ori.elf:     file format elf32-littleriscv


Disassembly of section .text:

00000000 <_start>:
   0:	00200e13          	li	t3,2
   4:	ff0106b7          	lui	a3,0xff010
   8:	f0068693          	addi	a3,a3,-256 # ff00ff00 <pass+0xff00fd1c>
   c:	f0f6e713          	ori	a4,a3,-241
  10:	f0f00393          	li	t2,-241
  14:	1c771463          	bne	a4,t2,1dc <fail>

00000018 <test_3>:
  18:	00300e13          	li	t3,3
  1c:	0ff016b7          	lui	a3,0xff01
  20:	ff068693          	addi	a3,a3,-16 # ff00ff0 <pass+0xff00e0c>
  24:	0f06e713          	ori	a4,a3,240
  28:	0ff013b7          	lui	t2,0xff01
  2c:	ff038393          	addi	t2,t2,-16 # ff00ff0 <pass+0xff00e0c>
  30:	1a771663          	bne	a4,t2,1dc <fail>

00000034 <test_4>:
  34:	00400e13          	li	t3,4
  38:	00ff06b7          	lui	a3,0xff0
  3c:	0ff68693          	addi	a3,a3,255 # ff00ff <pass+0xfeff1b>
  40:	70f6e713          	ori	a4,a3,1807
  44:	00ff03b7          	lui	t2,0xff0
  48:	7ff38393          	addi	t2,t2,2047 # ff07ff <pass+0xff061b>
  4c:	18771863          	bne	a4,t2,1dc <fail>

00000050 <test_5>:
  50:	00500e13          	li	t3,5
  54:	f00ff6b7          	lui	a3,0xf00ff
  58:	00f68693          	addi	a3,a3,15 # f00ff00f <pass+0xf00fee2b>
  5c:	0f06e713          	ori	a4,a3,240
  60:	f00ff3b7          	lui	t2,0xf00ff
  64:	0ff38393          	addi	t2,t2,255 # f00ff0ff <pass+0xf00fef1b>
  68:	16771a63          	bne	a4,t2,1dc <fail>

0000006c <test_6>:
  6c:	00600e13          	li	t3,6
  70:	ff0105b7          	lui	a1,0xff010
  74:	f0058593          	addi	a1,a1,-256 # ff00ff00 <pass+0xff00fd1c>
  78:	0f05e593          	ori	a1,a1,240
  7c:	ff0103b7          	lui	t2,0xff010
  80:	ff038393          	addi	t2,t2,-16 # ff00fff0 <pass+0xff00fe0c>
  84:	14759c63          	bne	a1,t2,1dc <fail>

00000088 <test_7>:
  88:	00700e13          	li	t3,7
  8c:	00000213          	li	tp,0
  90:	0ff010b7          	lui	ra,0xff01
  94:	ff008093          	addi	ra,ra,-16 # ff00ff0 <pass+0xff00e0c>
  98:	0f00e713          	ori	a4,ra,240
  9c:	00070313          	mv	t1,a4
  a0:	00120213          	addi	tp,tp,1 # 1 <_start+0x1>
  a4:	00200293          	li	t0,2
  a8:	fe5214e3          	bne	tp,t0,90 <test_7+0x8>
  ac:	0ff013b7          	lui	t2,0xff01
  b0:	ff038393          	addi	t2,t2,-16 # ff00ff0 <pass+0xff00e0c>
  b4:	12731463          	bne	t1,t2,1dc <fail>

000000b8 <test_8>:
  b8:	00800e13          	li	t3,8
  bc:	00000213          	li	tp,0
  c0:	00ff00b7          	lui	ra,0xff0
  c4:	0ff08093          	addi	ra,ra,255 # ff00ff <pass+0xfeff1b>
  c8:	70f0e713          	ori	a4,ra,1807
  cc:	00000013          	nop
  d0:	00070313          	mv	t1,a4
  d4:	00120213          	addi	tp,tp,1 # 1 <_start+0x1>
  d8:	00200293          	li	t0,2
  dc:	fe5212e3          	bne	tp,t0,c0 <test_8+0x8>
  e0:	00ff03b7          	lui	t2,0xff0
  e4:	7ff38393          	addi	t2,t2,2047 # ff07ff <pass+0xff061b>
  e8:	0e731a63          	bne	t1,t2,1dc <fail>

000000ec <test_9>:
  ec:	00900e13          	li	t3,9
  f0:	00000213          	li	tp,0
  f4:	f00ff0b7          	lui	ra,0xf00ff
  f8:	00f08093          	addi	ra,ra,15 # f00ff00f <pass+0xf00fee2b>
  fc:	0f00e713          	ori	a4,ra,240
 100:	00000013          	nop
 104:	00000013          	nop
 108:	00070313          	mv	t1,a4
 10c:	00120213          	addi	tp,tp,1 # 1 <_start+0x1>
 110:	00200293          	li	t0,2
 114:	fe5210e3          	bne	tp,t0,f4 <test_9+0x8>
 118:	f00ff3b7          	lui	t2,0xf00ff
 11c:	0ff38393          	addi	t2,t2,255 # f00ff0ff <pass+0xf00fef1b>
 120:	0a731e63          	bne	t1,t2,1dc <fail>

00000124 <test_10>:
 124:	00a00e13          	li	t3,10
 128:	00000213          	li	tp,0
 12c:	0ff010b7          	lui	ra,0xff01
 130:	ff008093          	addi	ra,ra,-16 # ff00ff0 <pass+0xff00e0c>
 134:	0f00e713          	ori	a4,ra,240
 138:	00120213          	addi	tp,tp,1 # 1 <_start+0x1>
 13c:	00200293          	li	t0,2
 140:	fe5216e3          	bne	tp,t0,12c <test_10+0x8>
 144:	0ff013b7          	lui	t2,0xff01
 148:	ff038393          	addi	t2,t2,-16 # ff00ff0 <pass+0xff00e0c>
 14c:	08771863          	bne	a4,t2,1dc <fail>

00000150 <test_11>:
 150:	00b00e13          	li	t3,11
 154:	00000213          	li	tp,0
 158:	00ff00b7          	lui	ra,0xff0
 15c:	0ff08093          	addi	ra,ra,255 # ff00ff <pass+0xfeff1b>
 160:	00000013          	nop
 164:	f0f0e713          	ori	a4,ra,-241
 168:	00120213          	addi	tp,tp,1 # 1 <_start+0x1>
 16c:	00200293          	li	t0,2
 170:	fe5214e3          	bne	tp,t0,158 <test_11+0x8>
 174:	fff00393          	li	t2,-1
 178:	06771263          	bne	a4,t2,1dc <fail>

0000017c <test_12>:
 17c:	00c00e13          	li	t3,12
 180:	00000213          	li	tp,0
 184:	f00ff0b7          	lui	ra,0xf00ff
 188:	00f08093          	addi	ra,ra,15 # f00ff00f <pass+0xf00fee2b>
 18c:	00000013          	nop
 190:	00000013          	nop
 194:	0f00e713          	ori	a4,ra,240
 198:	00120213          	addi	tp,tp,1 # 1 <_start+0x1>
 19c:	00200293          	li	t0,2
 1a0:	fe5212e3          	bne	tp,t0,184 <test_12+0x8>
 1a4:	f00ff3b7          	lui	t2,0xf00ff
 1a8:	0ff38393          	addi	t2,t2,255 # f00ff0ff <pass+0xf00fef1b>
 1ac:	02771863          	bne	a4,t2,1dc <fail>

000001b0 <test_13>:
 1b0:	00d00e13          	li	t3,13
 1b4:	0f006093          	ori	ra,zero,240
 1b8:	0f000393          	li	t2,240
 1bc:	02709063          	bne	ra,t2,1dc <fail>

000001c0 <test_14>:
 1c0:	00e00e13          	li	t3,14
 1c4:	00ff00b7          	lui	ra,0xff0
 1c8:	0ff08093          	addi	ra,ra,255 # ff00ff <pass+0xfeff1b>
 1cc:	70f0e013          	ori	zero,ra,1807
 1d0:	00000393          	li	t2,0
 1d4:	00701463          	bne	zero,t2,1dc <fail>
 1d8:	01c01663          	bne	zero,t3,1e4 <pass>

000001dc <fail>:
 1dc:	0ff0000f          	fence
 1e0:	00100073          	.word	0x00100073

000001e4 <pass>:
 1e4:	0ff0000f          	fence
 1e8:	00100e13          	li	t3,1
 1ec:	00100073          	.word	0x00100073
